(iModels
Point_Model_Contour_Only_Asymm
p0
(dp1
S'scalar_params'
p2
(lp3
sS'num_variable_pts'
p4
I4
sS'image'
p5
NsS'vertices'
p6
(lp7
(I319
I343
tp8
a(I295
I243
tp9
a(I399
I220
tp10
a(I451
I311
tp11
asb.