(iModels
Model_Tee_Skel
p0
(dp1
S'symmetric'
p2
I01
sS'scalar_params'
p3
(lp4
sS'vertices'
p5
(lp6
(I370
I422
tp7
a(I368
I215
tp8
a(I328
I201
tp9
a(I272
I263
tp10
a(I274
I219
tp11
a(I224
I264
tp12
a(I226
I230
tp13
a(I273
I422
tp14
asb.