(iModels
Point_Model_Contour_Only_Asymm
p0
(dp1
S'scalar_params'
p2
(lp3
sS'num_variable_pts'
p4
I5
sS'vertices'
p5
(lp6
(I192
I157
tp7
a(I97
I216
tp8
a(I7
I70
tp9
a(I373
I42
tp10
a(I311
I211
tp11
asb.