(iclothing_models.Models
Point_Model_Contour_Only_Asymm
p0
(dp1
S'scalar_params'
p2
(lp3
sS'num_variable_pts'
p4
I4
sS'image'
p5
NsS'vertices'
p6
(lp7
(I166
I249
tp8
a(I178
I153
tp9
a(I467
I162
tp10
a(I510
I281
tp11
asb.