(iModels
Point_Model_Contour_Only_Asymm
p0
(dp1
S'scalar_params'
p2
(lp3
sS'num_variable_pts'
p4
I4
sS'image'
p5
NsS'vertices'
p6
(lp7
(I135
I357
tp8
a(I175
I188
tp9
a(I441
I195
tp10
a(I474
I365
tp11
asb.