(iModels
Model_Tee_Skel
p0
(dp1
S'symmetric'
p2
I01
sS'scalar_params'
p3
(lp4
sS'vertices'
p5
(lp6
(I336
I388
tp7
a(I324
I219
tp8
a(I302
I209
tp9
a(I261
I258
tp10
a(I262
I223
tp11
a(I218
I262
tp12
a(I216
I229
tp13
a(I270
I392
tp14
asb.