(iModels
Model_Tee_Skel
p0
(dp1
S'symmetric'
p2
I01
sS'scalar_params'
p3
(lp4
sS'vertices'
p5
(lp6
(I350
I451
tp7
a(I340
I135
tp8
a(I290
I125
tp9
a(I251
I196
tp10
a(I253
I146
tp11
a(I193
I205
tp12
a(I190
I169
tp13
a(I259
I453
tp14
asb.